target datalayout = "e-m:e-p270:32:32-p271:32:32-p272:64:64-i64:64-i128:128-f80:128-n8:16:32:64-S128"
target triple = "x86_64-pc-linux-gnu"

; Function Attrs: mustprogress uwtable
define void @_ZN2mu9ParserIntC2Ev(ptr noundef nonnull align 8 dereferenceable(596) %0) unnamed_addr #1 align 2 personality ptr @__gxx_personality_v0 {
  %2 = alloca ptr, align 8
  %3 = alloca ptr, align 8
  %4 = alloca i32, align 4
  store ptr %0, ptr %2, align 8
  %5 = load ptr, ptr %2, align 8
  call void @_ZN2mu10ParserBaseC2Ev(ptr noundef nonnull align 8 dereferenceable(596) %5)
  store ptr getelementptr inbounds inrange(-16, 56) ({ [9 x ptr] }, ptr @_ZTVN2mu9ParserIntE, i32 0, i32 0, i32 2), ptr %5, align 8
  invoke void @_ZN2mu10ParserBase11AddValIdentEPFiPKcPiPdE(ptr noundef nonnull align 8 dereferenceable(596) %5, ptr noundef @_ZN2mu9ParserInt5IsValEPKcPiPd)
          to label %6 unwind label %21

6:                                                ; preds = %1
  invoke void @_ZN2mu10ParserBase11AddValIdentEPFiPKcPiPdE(ptr noundef nonnull align 8 dereferenceable(596) %5, ptr noundef @_ZN2mu9ParserInt8IsBinValEPKcPiPd)
          to label %7 unwind label %21

7:                                                ; preds = %6
  invoke void @_ZN2mu10ParserBase11AddValIdentEPFiPKcPiPdE(ptr noundef nonnull align 8 dereferenceable(596) %5, ptr noundef @_ZN2mu9ParserInt8IsHexValEPKcPiPd)
          to label %8 unwind label %21

8:                                                ; preds = %7
  %9 = load ptr, ptr %5, align 8
  %10 = getelementptr inbounds ptr, ptr %9, i64 2
  %11 = load ptr, ptr %10, align 8
  invoke void %11(ptr noundef nonnull align 8 dereferenceable(596) %5)
          to label %12 unwind label %21

12:                                               ; preds = %8
  %13 = load ptr, ptr %5, align 8
  %14 = getelementptr inbounds ptr, ptr %13, i64 3
  %15 = load ptr, ptr %14, align 8
  invoke void %15(ptr noundef nonnull align 8 dereferenceable(596) %5)
          to label %16 unwind label %21

16:                                               ; preds = %12
  %17 = load ptr, ptr %5, align 8
  %18 = getelementptr inbounds ptr, ptr %17, i64 5
  %19 = load ptr, ptr %18, align 8
  invoke void %19(ptr noundef nonnull align 8 dereferenceable(596) %5)
          to label %20 unwind label %21

20:                                               ; preds = %16
  ret void

21:                                               ; preds = %16, %12, %8, %7, %6, %1
  %22 = landingpad { ptr, i32 }
          cleanup
  %23 = extractvalue { ptr, i32 } %22, 0
  store ptr %23, ptr %3, align 8
  %24 = extractvalue { ptr, i32 } %22, 1
  store i32 %24, ptr %4, align 4
  call void @_ZN2mu10ParserBaseD2Ev(ptr noundef nonnull align 8 dereferenceable(596) %5) #5
  br label %25

25:                                               ; preds = %21
  %26 = load ptr, ptr %3, align 8
  %27 = load i32, ptr %4, align 4
  %28 = insertvalue { ptr, i32 } poison, ptr %26, 0
  %29 = insertvalue { ptr, i32 } %28, i32 %27, 1
  resume { ptr, i32 } %29
}