; Function Attrs: mustprogress uwtable
define void @_ZN2mu9ParserIntC2Ev(ptr noundef nonnull align 8 dereferenceable(596) %0) unnamed_addr #1 align 2 personality ptr @__gxx_personality_v0 {
  tail call void @_ZN2mu10ParserBaseC2Ev(ptr noundef nonnull align 8 dereferenceable(596) %0)
  store ptr getelementptr inbounds inrange(-16, 56) ({ [9 x ptr] }, ptr @_ZTVN2mu9ParserIntE, i64 0, i32 0, i64 2), ptr %0, align 8
  invoke void @_ZN2mu10ParserBase11AddValIdentEPFiPKcPiPdE(ptr noundef nonnull align 8 dereferenceable(596) %0, ptr noundef nonnull @_ZN2mu9ParserInt5IsValEPKcPiPd)
          to label %2 unwind label %17

2:                                                ; preds = %1
  invoke void @_ZN2mu10ParserBase11AddValIdentEPFiPKcPiPdE(ptr noundef nonnull align 8 dereferenceable(596) %0, ptr noundef nonnull @_ZN2mu9ParserInt8IsBinValEPKcPiPd)
          to label %3 unwind label %17

3:                                                ; preds = %2
  invoke void @_ZN2mu10ParserBase11AddValIdentEPFiPKcPiPdE(ptr noundef nonnull align 8 dereferenceable(596) %0, ptr noundef nonnull @_ZN2mu9ParserInt8IsHexValEPKcPiPd)
          to label %4 unwind label %17

4:                                                ; preds = %3
  %5 = load ptr, ptr %0, align 8
  %6 = getelementptr inbounds i8, ptr %5, i64 16
  %7 = load ptr, ptr %6, align 8
  invoke void %7(ptr noundef nonnull align 8 dereferenceable(596) %0)
          to label %8 unwind label %17

8:                                                ; preds = %4
  %9 = load ptr, ptr %0, align 8
  %10 = getelementptr inbounds i8, ptr %9, i64 24
  %11 = load ptr, ptr %10, align 8
  invoke void %11(ptr noundef nonnull align 8 dereferenceable(596) %0)
          to label %12 unwind label %17

12:                                               ; preds = %8
  %13 = load ptr, ptr %0, align 8
  %14 = getelementptr inbounds i8, ptr %13, i64 40
  %15 = load ptr, ptr %14, align 8
  invoke void %15(ptr noundef nonnull align 8 dereferenceable(596) %0)
          to label %16 unwind label %17

16:                                               ; preds = %12
  ret void

17:                                               ; preds = %12, %8, %4, %3, %2, %1
  %18 = landingpad { ptr, i32 }
          cleanup
  tail call void @_ZN2mu10ParserBaseD2Ev(ptr noundef nonnull align 8 dereferenceable(596) %0) #12
  resume { ptr, i32 } %18
}